; Function Attrs: mustprogress uwtable
define void @_ZN7testing8internal12UnitTestImpl26RegisterParameterizedTestsEv(ptr noundef nonnull align 8 captures(none) dereferenceable(497) %0) local_unnamed_addr #4 align 2 {
  %2 = getelementptr inbounds nuw i8, ptr %0, i64 256
  %3 = load i8, ptr %2, align 8, !tbaa !650, !range !68, !noundef !69
  %4 = trunc nuw i8 %3 to i1
  br i1 %4, label %16, label %5

5:                                                ; preds = %1
  %6 = getelementptr inbounds nuw i8, ptr %0, i64 232
  %7 = load ptr, ptr %6, align 8, !tbaa !651
  %8 = getelementptr inbounds nuw i8, ptr %0, i64 240
  %9 = load ptr, ptr %8, align 8, !tbaa !651
  %.not4.i = icmp eq ptr %7, %9
  br i1 %.not4.i, label %_ZN7testing8internal29ParameterizedTestCaseRegistry13RegisterTestsEv.exit, label %.lr.ph.i

.lr.ph.i:                                         ; preds = %5, %.lr.ph.i
  %.sroa.01.05.i = phi ptr [ %14, %.lr.ph.i ], [ %7, %5 ]
  %10 = load ptr, ptr %.sroa.01.05.i, align 8, !tbaa !652
  %11 = load ptr, ptr %10, align 8, !tbaa !23
  %12 = getelementptr inbounds nuw i8, ptr %11, i64 32
  %13 = load ptr, ptr %12, align 8
  tail call void %13(ptr noundef nonnull align 8 dereferenceable(8) %10)
  %14 = getelementptr inbounds nuw i8, ptr %.sroa.01.05.i, i64 8
  %15 = load ptr, ptr %8, align 8, !tbaa !651
  %.not.i = icmp eq ptr %14, %15
  br i1 %.not.i, label %_ZN7testing8internal29ParameterizedTestCaseRegistry13RegisterTestsEv.exit, label %.lr.ph.i, !llvm.loop !654

_ZN7testing8internal29ParameterizedTestCaseRegistry13RegisterTestsEv.exit: ; preds = %.lr.ph.i, %5
  store i8 1, ptr %2, align 8, !tbaa !650
  br label %16

16:                                               ; preds = %_ZN7testing8internal29ParameterizedTestCaseRegistry13RegisterTestsEv.exit, %1
  ret void
}